; Function Attrs: nounwind uwtable
define internal noundef i32 @fft_horizontal(ptr noundef readonly captures(none) %0, ptr noundef readonly captures(none) %1, i32 noundef %2, i32 noundef %3) #0 {
  %5 = load ptr, ptr %1, align 8, !tbaa !76
  %6 = getelementptr inbounds nuw i8, ptr %1, i64 16
  %7 = load ptr, ptr %6, align 8, !tbaa !78
  %8 = getelementptr inbounds nuw i8, ptr %1, i64 36
  %9 = load i32, ptr %8, align 4, !tbaa !75
  %10 = mul nsw i32 %9, %2
  %11 = sdiv i32 %10, %3
  %12 = add nsw i32 %2, 1
  %13 = mul nsw i32 %9, %12
  %14 = sdiv i32 %13, %3
  %15 = icmp slt i32 %11, %14
  br i1 %15, label %.lr.ph, label %._crit_edge

.lr.ph:                                           ; preds = %4
  %16 = getelementptr inbounds nuw i8, ptr %1, i64 32
  %17 = load i32, ptr %16, align 8, !tbaa !73
  %18 = getelementptr inbounds nuw i8, ptr %0, i64 72
  %19 = load ptr, ptr %18, align 8, !tbaa !4
  %20 = getelementptr inbounds nuw i8, ptr %19, i64 1128
  %21 = sext i32 %17 to i64
  %22 = getelementptr inbounds [4 x ptr], ptr %20, i64 0, i64 %21
  %23 = getelementptr inbounds nuw i8, ptr %19, i64 104
  %24 = sext i32 %2 to i64
  %25 = getelementptr inbounds [4 x [16 x ptr]], ptr %23, i64 0, i64 %21, i64 %24
  %26 = sext i32 %11 to i64
  %27 = sext i32 %9 to i64
  br label %28

28:                                               ; preds = %.lr.ph, %28
  %indvars.iv = phi i64 [ %26, %.lr.ph ], [ %indvars.iv.next, %28 ]
  %29 = load ptr, ptr %22, align 8, !tbaa !82
  %30 = load ptr, ptr %25, align 8, !tbaa !83
  %31 = mul nsw i64 %indvars.iv, %27
  %32 = getelementptr inbounds %struct.AVComplexFloat, ptr %7, i64 %31
  %33 = getelementptr inbounds %struct.AVComplexFloat, ptr %5, i64 %31
  tail call void %29(ptr noundef %30, ptr noundef %32, ptr noundef %33, i64 noundef 8) #14
  %indvars.iv.next = add nsw i64 %indvars.iv, 1
  %lftr.wideiv = trunc i64 %indvars.iv.next to i32
  %exitcond.not = icmp eq i32 %14, %lftr.wideiv
  br i1 %exitcond.not, label %._crit_edge, label %28, !llvm.loop !85

._crit_edge:                                      ; preds = %28, %4
  ret i32 0
}